target datalayout = "e-m:e-p270:32:32-p271:32:32-p272:64:64-i64:64-i128:128-f80:128-n8:16:32:64-S128"
target triple = "x86_64-unknown-linux-gnu"

%struct.bool_rewriter_params = type { ptr, %class.params_ref }
%class.params_ref = type { ptr }
%class.bool_rewriter = type { ptr, i8, i8, i8, i8, i8, i8, i32, i8, i32, i32, i8, %class.ptr_vector, %class.ptr_vector, %class.svector, %class.svector }
%class.ptr_vector = type { %class.vector }
%class.vector = type { ptr }
%class.svector = type { %class.vector.0 }
%class.vector.0 = type { ptr }

@.str.5 = private unnamed_addr constant [9 x i8] c"rewriter\00", align 1
@.str.6 = private unnamed_addr constant [12 x i8] c"flat_and_or\00", align 1
@.str.7 = private unnamed_addr constant [18 x i8] c"sort_disjunctions\00", align 1
@.str.8 = private unnamed_addr constant [9 x i8] c"elim_and\00", align 1
@.str.9 = private unnamed_addr constant [9 x i8] c"elim_ite\00", align 1
@.str.10 = private unnamed_addr constant [10 x i8] c"local_ctx\00", align 1
@.str.11 = private unnamed_addr constant [16 x i8] c"local_ctx_limit\00", align 1
@.str.12 = private unnamed_addr constant [15 x i8] c"blast_distinct\00", align 1
@.str.13 = private unnamed_addr constant [25 x i8] c"blast_distinct_threshold\00", align 1
@.str.14 = private unnamed_addr constant [16 x i8] c"ite_extra_rules\00", align 1

; Function Attrs: mustprogress nounwind uwtable
define linkonce_odr hidden void @_ZN20bool_rewriter_paramsD2Ev(ptr noundef nonnull align 8 dereferenceable(16) %this) unnamed_addr #5 comdat align 2 {
entry:
  %this.addr = alloca ptr, align 8
  store ptr %this, ptr %this.addr, align 8
  %this1 = load ptr, ptr %this.addr, align 8
  %g = getelementptr inbounds %struct.bool_rewriter_params, ptr %this1, i32 0, i32 1
  call void @_ZN10params_refD1Ev(ptr noundef nonnull align 8 dereferenceable(8) %g) #3
  ret void
}

; Function Attrs: mustprogress uwtable
define linkonce_odr hidden noundef zeroext i1 @_ZNK20bool_rewriter_params15ite_extra_rulesEv(ptr noundef nonnull align 8 dereferenceable(16) %this) #4 comdat align 2 {
entry:
  %this.addr = alloca ptr, align 8
  store ptr %this, ptr %this.addr, align 8
  %this1 = load ptr, ptr %this.addr, align 8
  %p = getelementptr inbounds %struct.bool_rewriter_params, ptr %this1, i32 0, i32 0
  %0 = load ptr, ptr %p, align 8
  %g = getelementptr inbounds %struct.bool_rewriter_params, ptr %this1, i32 0, i32 1
  %call = call noundef zeroext i1 @_ZNK10params_ref8get_boolEPKcRKS_b(ptr noundef nonnull align 8 dereferenceable(8) %0, ptr noundef @.str.14, ptr noundef nonnull align 8 dereferenceable(8) %g, i1 noundef zeroext true)
  ret i1 %call
}

; Function Attrs: mustprogress uwtable
define linkonce_odr hidden noundef i32 @_ZNK20bool_rewriter_params24blast_distinct_thresholdEv(ptr noundef nonnull align 8 dereferenceable(16) %this) #4 comdat align 2 {
entry:
  %this.addr = alloca ptr, align 8
  store ptr %this, ptr %this.addr, align 8
  %this1 = load ptr, ptr %this.addr, align 8
  %p = getelementptr inbounds %struct.bool_rewriter_params, ptr %this1, i32 0, i32 0
  %0 = load ptr, ptr %p, align 8
  %g = getelementptr inbounds %struct.bool_rewriter_params, ptr %this1, i32 0, i32 1
  %call = call noundef i32 @_ZNK10params_ref8get_uintEPKcRKS_j(ptr noundef nonnull align 8 dereferenceable(8) %0, ptr noundef @.str.13, ptr noundef nonnull align 8 dereferenceable(8) %g, i32 noundef -1)
  ret i32 %call
}

; Function Attrs: mustprogress uwtable
define linkonce_odr hidden noundef zeroext i1 @_ZNK20bool_rewriter_params14blast_distinctEv(ptr noundef nonnull align 8 dereferenceable(16) %this) #4 comdat align 2 {
entry:
  %this.addr = alloca ptr, align 8
  store ptr %this, ptr %this.addr, align 8
  %this1 = load ptr, ptr %this.addr, align 8
  %p = getelementptr inbounds %struct.bool_rewriter_params, ptr %this1, i32 0, i32 0
  %0 = load ptr, ptr %p, align 8
  %g = getelementptr inbounds %struct.bool_rewriter_params, ptr %this1, i32 0, i32 1
  %call = call noundef zeroext i1 @_ZNK10params_ref8get_boolEPKcRKS_b(ptr noundef nonnull align 8 dereferenceable(8) %0, ptr noundef @.str.12, ptr noundef nonnull align 8 dereferenceable(8) %g, i1 noundef zeroext false)
  ret i1 %call
}

; Function Attrs: mustprogress uwtable
define linkonce_odr hidden noundef i32 @_ZNK20bool_rewriter_params15local_ctx_limitEv(ptr noundef nonnull align 8 dereferenceable(16) %this) #4 comdat align 2 {
entry:
  %this.addr = alloca ptr, align 8
  store ptr %this, ptr %this.addr, align 8
  %this1 = load ptr, ptr %this.addr, align 8
  %p = getelementptr inbounds %struct.bool_rewriter_params, ptr %this1, i32 0, i32 0
  %0 = load ptr, ptr %p, align 8
  %g = getelementptr inbounds %struct.bool_rewriter_params, ptr %this1, i32 0, i32 1
  %call = call noundef i32 @_ZNK10params_ref8get_uintEPKcRKS_j(ptr noundef nonnull align 8 dereferenceable(8) %0, ptr noundef @.str.11, ptr noundef nonnull align 8 dereferenceable(8) %g, i32 noundef -1)
  ret i32 %call
}

; Function Attrs: mustprogress uwtable
define linkonce_odr hidden noundef zeroext i1 @_ZNK20bool_rewriter_params9local_ctxEv(ptr noundef nonnull align 8 dereferenceable(16) %this) #4 comdat align 2 {
entry:
  %this.addr = alloca ptr, align 8
  store ptr %this, ptr %this.addr, align 8
  %this1 = load ptr, ptr %this.addr, align 8
  %p = getelementptr inbounds %struct.bool_rewriter_params, ptr %this1, i32 0, i32 0
  %0 = load ptr, ptr %p, align 8
  %g = getelementptr inbounds %struct.bool_rewriter_params, ptr %this1, i32 0, i32 1
  %call = call noundef zeroext i1 @_ZNK10params_ref8get_boolEPKcRKS_b(ptr noundef nonnull align 8 dereferenceable(8) %0, ptr noundef @.str.10, ptr noundef nonnull align 8 dereferenceable(8) %g, i1 noundef zeroext false)
  ret i1 %call
}

; Function Attrs: mustprogress uwtable
define linkonce_odr hidden noundef zeroext i1 @_ZNK20bool_rewriter_params8elim_iteEv(ptr noundef nonnull align 8 dereferenceable(16) %this) #4 comdat align 2 {
entry:
  %this.addr = alloca ptr, align 8
  store ptr %this, ptr %this.addr, align 8
  %this1 = load ptr, ptr %this.addr, align 8
  %p = getelementptr inbounds %struct.bool_rewriter_params, ptr %this1, i32 0, i32 0
  %0 = load ptr, ptr %p, align 8
  %g = getelementptr inbounds %struct.bool_rewriter_params, ptr %this1, i32 0, i32 1
  %call = call noundef zeroext i1 @_ZNK10params_ref8get_boolEPKcRKS_b(ptr noundef nonnull align 8 dereferenceable(8) %0, ptr noundef @.str.9, ptr noundef nonnull align 8 dereferenceable(8) %g, i1 noundef zeroext true)
  ret i1 %call
}

; Function Attrs: mustprogress uwtable
define linkonce_odr hidden noundef zeroext i1 @_ZNK20bool_rewriter_params8elim_andEv(ptr noundef nonnull align 8 dereferenceable(16) %this) #4 comdat align 2 {
entry:
  %this.addr = alloca ptr, align 8
  store ptr %this, ptr %this.addr, align 8
  %this1 = load ptr, ptr %this.addr, align 8
  %p = getelementptr inbounds %struct.bool_rewriter_params, ptr %this1, i32 0, i32 0
  %0 = load ptr, ptr %p, align 8
  %g = getelementptr inbounds %struct.bool_rewriter_params, ptr %this1, i32 0, i32 1
  %call = call noundef zeroext i1 @_ZNK10params_ref8get_boolEPKcRKS_b(ptr noundef nonnull align 8 dereferenceable(8) %0, ptr noundef @.str.8, ptr noundef nonnull align 8 dereferenceable(8) %g, i1 noundef zeroext false)
  ret i1 %call
}

; Function Attrs: mustprogress uwtable
define linkonce_odr hidden noundef zeroext i1 @_ZNK20bool_rewriter_params17sort_disjunctionsEv(ptr noundef nonnull align 8 dereferenceable(16) %this) #4 comdat align 2 {
entry:
  %this.addr = alloca ptr, align 8
  store ptr %this, ptr %this.addr, align 8
  %this1 = load ptr, ptr %this.addr, align 8
  %p = getelementptr inbounds %struct.bool_rewriter_params, ptr %this1, i32 0, i32 0
  %0 = load ptr, ptr %p, align 8
  %g = getelementptr inbounds %struct.bool_rewriter_params, ptr %this1, i32 0, i32 1
  %call = call noundef zeroext i1 @_ZNK10params_ref8get_boolEPKcRKS_b(ptr noundef nonnull align 8 dereferenceable(8) %0, ptr noundef @.str.7, ptr noundef nonnull align 8 dereferenceable(8) %g, i1 noundef zeroext true)
  ret i1 %call
}

; Function Attrs: mustprogress uwtable
define linkonce_odr hidden noundef zeroext i1 @_ZNK20bool_rewriter_params11flat_and_orEv(ptr noundef nonnull align 8 dereferenceable(16) %this) #4 comdat align 2 {
entry:
  %this.addr = alloca ptr, align 8
  store ptr %this, ptr %this.addr, align 8
  %this1 = load ptr, ptr %this.addr, align 8
  %p = getelementptr inbounds %struct.bool_rewriter_params, ptr %this1, i32 0, i32 0
  %0 = load ptr, ptr %p, align 8
  %g = getelementptr inbounds %struct.bool_rewriter_params, ptr %this1, i32 0, i32 1
  %call = call noundef zeroext i1 @_ZNK10params_ref8get_boolEPKcRKS_b(ptr noundef nonnull align 8 dereferenceable(8) %0, ptr noundef @.str.6, ptr noundef nonnull align 8 dereferenceable(8) %g, i1 noundef zeroext true)
  ret i1 %call
}

; Function Attrs: mustprogress uwtable
define linkonce_odr hidden void @_ZN20bool_rewriter_paramsC2ERK10params_ref(ptr noundef nonnull align 8 dereferenceable(16) %this, ptr noundef nonnull align 8 dereferenceable(8) %_p) unnamed_addr #4 comdat align 2 {
entry:
  %this.addr = alloca ptr, align 8
  %_p.addr = alloca ptr, align 8
  store ptr %this, ptr %this.addr, align 8
  store ptr %_p, ptr %_p.addr, align 8
  %this1 = load ptr, ptr %this.addr, align 8
  %p = getelementptr inbounds %struct.bool_rewriter_params, ptr %this1, i32 0, i32 0
  %0 = load ptr, ptr %_p.addr, align 8
  store ptr %0, ptr %p, align 8
  %g = getelementptr inbounds %struct.bool_rewriter_params, ptr %this1, i32 0, i32 1
  call void @_ZN7gparams10get_moduleEPKc(ptr sret(%class.params_ref) align 8 %g, ptr noundef @.str.5)
  ret void
}

; Function Attrs: mustprogress uwtable
define hidden void @_ZN13bool_rewriter11updt_paramsERK10params_ref(ptr noundef nonnull align 8 dereferenceable(72) %this, ptr noundef nonnull align 8 dereferenceable(8) %_p) #4 align 2 personality ptr @__gxx_personality_v0 {
entry:
  %this.addr = alloca ptr, align 8
  %_p.addr = alloca ptr, align 8
  %p = alloca %struct.bool_rewriter_params, align 8
  %exn.slot = alloca ptr, align 8
  %ehselector.slot = alloca i32, align 4
  store ptr %this, ptr %this.addr, align 8
  store ptr %_p, ptr %_p.addr, align 8
  %this1 = load ptr, ptr %this.addr, align 8
  %0 = load ptr, ptr %_p.addr, align 8
  call void @_ZN20bool_rewriter_paramsC2ERK10params_ref(ptr noundef nonnull align 8 dereferenceable(16) %p, ptr noundef nonnull align 8 dereferenceable(8) %0)
  %call = invoke noundef zeroext i1 @_ZNK20bool_rewriter_params11flat_and_orEv(ptr noundef nonnull align 8 dereferenceable(16) %p)
          to label %invoke.cont unwind label %lpad

invoke.cont:                                      ; preds = %entry
  %m_flat_and_or = getelementptr inbounds %class.bool_rewriter, ptr %this1, i32 0, i32 1
  %frombool = zext i1 %call to i8
  store i8 %frombool, ptr %m_flat_and_or, align 8
  %call3 = invoke noundef zeroext i1 @_ZNK20bool_rewriter_params17sort_disjunctionsEv(ptr noundef nonnull align 8 dereferenceable(16) %p)
          to label %invoke.cont2 unwind label %lpad

invoke.cont2:                                     ; preds = %invoke.cont
  %m_sort_disjunctions = getelementptr inbounds %class.bool_rewriter, ptr %this1, i32 0, i32 2
  %frombool4 = zext i1 %call3 to i8
  store i8 %frombool4, ptr %m_sort_disjunctions, align 1
  %call6 = invoke noundef zeroext i1 @_ZNK20bool_rewriter_params8elim_andEv(ptr noundef nonnull align 8 dereferenceable(16) %p)
          to label %invoke.cont5 unwind label %lpad

invoke.cont5:                                     ; preds = %invoke.cont2
  %m_elim_and = getelementptr inbounds %class.bool_rewriter, ptr %this1, i32 0, i32 4
  %frombool7 = zext i1 %call6 to i8
  store i8 %frombool7, ptr %m_elim_and, align 1
  %call9 = invoke noundef zeroext i1 @_ZNK20bool_rewriter_params8elim_iteEv(ptr noundef nonnull align 8 dereferenceable(16) %p)
          to label %invoke.cont8 unwind label %lpad

invoke.cont8:                                     ; preds = %invoke.cont5
  %m_elim_ite = getelementptr inbounds %class.bool_rewriter, ptr %this1, i32 0, i32 11
  %frombool10 = zext i1 %call9 to i8
  store i8 %frombool10, ptr %m_elim_ite, align 8
  %call12 = invoke noundef zeroext i1 @_ZNK20bool_rewriter_params9local_ctxEv(ptr noundef nonnull align 8 dereferenceable(16) %p)
          to label %invoke.cont11 unwind label %lpad

invoke.cont11:                                    ; preds = %invoke.cont8
  %m_local_ctx = getelementptr inbounds %class.bool_rewriter, ptr %this1, i32 0, i32 3
  %frombool13 = zext i1 %call12 to i8
  store i8 %frombool13, ptr %m_local_ctx, align 2
  %call15 = invoke noundef i32 @_ZNK20bool_rewriter_params15local_ctx_limitEv(ptr noundef nonnull align 8 dereferenceable(16) %p)
          to label %invoke.cont14 unwind label %lpad

invoke.cont14:                                    ; preds = %invoke.cont11
  %m_local_ctx_limit = getelementptr inbounds %class.bool_rewriter, ptr %this1, i32 0, i32 9
  store i32 %call15, ptr %m_local_ctx_limit, align 8
  %call17 = invoke noundef zeroext i1 @_ZNK20bool_rewriter_params14blast_distinctEv(ptr noundef nonnull align 8 dereferenceable(16) %p)
          to label %invoke.cont16 unwind label %lpad

invoke.cont16:                                    ; preds = %invoke.cont14
  %m_blast_distinct = getelementptr inbounds %class.bool_rewriter, ptr %this1, i32 0, i32 5
  %frombool18 = zext i1 %call17 to i8
  store i8 %frombool18, ptr %m_blast_distinct, align 4
  %call20 = invoke noundef i32 @_ZNK20bool_rewriter_params24blast_distinct_thresholdEv(ptr noundef nonnull align 8 dereferenceable(16) %p)
          to label %invoke.cont19 unwind label %lpad

invoke.cont19:                                    ; preds = %invoke.cont16
  %m_blast_distinct_threshold = getelementptr inbounds %class.bool_rewriter, ptr %this1, i32 0, i32 7
  store i32 %call20, ptr %m_blast_distinct_threshold, align 8
  %call22 = invoke noundef zeroext i1 @_ZNK20bool_rewriter_params15ite_extra_rulesEv(ptr noundef nonnull align 8 dereferenceable(16) %p)
          to label %invoke.cont21 unwind label %lpad

invoke.cont21:                                    ; preds = %invoke.cont19
  %m_ite_extra_rules = getelementptr inbounds %class.bool_rewriter, ptr %this1, i32 0, i32 8
  %frombool23 = zext i1 %call22 to i8
  store i8 %frombool23, ptr %m_ite_extra_rules, align 4
  call void @_ZN20bool_rewriter_paramsD2Ev(ptr noundef nonnull align 8 dereferenceable(16) %p) #3
  ret void

lpad:                                             ; preds = %invoke.cont19, %invoke.cont16, %invoke.cont14, %invoke.cont11, %invoke.cont8, %invoke.cont5, %invoke.cont2, %invoke.cont, %entry
  %1 = landingpad { ptr, i32 }
          cleanup
  %2 = extractvalue { ptr, i32 } %1, 0
  store ptr %2, ptr %exn.slot, align 8
  %3 = extractvalue { ptr, i32 } %1, 1
  store i32 %3, ptr %ehselector.slot, align 4
  call void @_ZN20bool_rewriter_paramsD2Ev(ptr noundef nonnull align 8 dereferenceable(16) %p) #3
  br label %eh.resume

eh.resume:                                        ; preds = %lpad
  %exn = load ptr, ptr %exn.slot, align 8
  %sel = load i32, ptr %ehselector.slot, align 4
  %lpad.val = insertvalue { ptr, i32 } poison, ptr %exn, 0
  %lpad.val24 = insertvalue { ptr, i32 } %lpad.val, i32 %sel, 1
  resume { ptr, i32 } %lpad.val24
}