; Function Attrs: mustprogress uwtable
define hidden void @_ZN13bool_rewriter11updt_paramsERK10params_ref(ptr nocapture noundef nonnull writeonly align 8 dereferenceable(72) %this, ptr noundef nonnull align 8 dereferenceable(8) %_p) local_unnamed_addr #3 align 2 personality ptr @__gxx_personality_v0 {
entry:
  %p = alloca %struct.bool_rewriter_params, align 8
  store ptr %_p, ptr %p, align 8
  %g.i = getelementptr inbounds i8, ptr %p, i64 8
  call void @_ZN7gparams10get_moduleEPKc(ptr nonnull sret(%class.params_ref) align 8 %g.i, ptr noundef nonnull @.str.5)
  %0 = load ptr, ptr %p, align 8
  %call.i2 = invoke noundef zeroext i1 @_ZNK10params_ref8get_boolEPKcRKS_b(ptr noundef nonnull align 8 dereferenceable(8) %0, ptr noundef nonnull @.str.6, ptr noundef nonnull align 8 dereferenceable(8) %g.i, i1 noundef zeroext true)
          to label %invoke.cont unwind label %lpad

invoke.cont:                                      ; preds = %entry
  %m_flat_and_or = getelementptr inbounds i8, ptr %this, i64 8
  %frombool = zext i1 %call.i2 to i8
  store i8 %frombool, ptr %m_flat_and_or, align 8
  %1 = load ptr, ptr %p, align 8
  %call.i4 = invoke noundef zeroext i1 @_ZNK10params_ref8get_boolEPKcRKS_b(ptr noundef nonnull align 8 dereferenceable(8) %1, ptr noundef nonnull @.str.7, ptr noundef nonnull align 8 dereferenceable(8) %g.i, i1 noundef zeroext true)
          to label %invoke.cont2 unwind label %lpad

invoke.cont2:                                     ; preds = %invoke.cont
  %m_sort_disjunctions = getelementptr inbounds i8, ptr %this, i64 9
  %frombool4 = zext i1 %call.i4 to i8
  store i8 %frombool4, ptr %m_sort_disjunctions, align 1
  %2 = load ptr, ptr %p, align 8
  %call.i6 = invoke noundef zeroext i1 @_ZNK10params_ref8get_boolEPKcRKS_b(ptr noundef nonnull align 8 dereferenceable(8) %2, ptr noundef nonnull @.str.8, ptr noundef nonnull align 8 dereferenceable(8) %g.i, i1 noundef zeroext false)
          to label %invoke.cont5 unwind label %lpad

invoke.cont5:                                     ; preds = %invoke.cont2
  %m_elim_and = getelementptr inbounds i8, ptr %this, i64 11
  %frombool7 = zext i1 %call.i6 to i8
  store i8 %frombool7, ptr %m_elim_and, align 1
  %3 = load ptr, ptr %p, align 8
  %call.i8 = invoke noundef zeroext i1 @_ZNK10params_ref8get_boolEPKcRKS_b(ptr noundef nonnull align 8 dereferenceable(8) %3, ptr noundef nonnull @.str.9, ptr noundef nonnull align 8 dereferenceable(8) %g.i, i1 noundef zeroext true)
          to label %invoke.cont8 unwind label %lpad

invoke.cont8:                                     ; preds = %invoke.cont5
  %m_elim_ite = getelementptr inbounds i8, ptr %this, i64 32
  %frombool10 = zext i1 %call.i8 to i8
  store i8 %frombool10, ptr %m_elim_ite, align 8
  %4 = load ptr, ptr %p, align 8
  %call.i10 = invoke noundef zeroext i1 @_ZNK10params_ref8get_boolEPKcRKS_b(ptr noundef nonnull align 8 dereferenceable(8) %4, ptr noundef nonnull @.str.10, ptr noundef nonnull align 8 dereferenceable(8) %g.i, i1 noundef zeroext false)
          to label %invoke.cont11 unwind label %lpad

invoke.cont11:                                    ; preds = %invoke.cont8
  %m_local_ctx = getelementptr inbounds i8, ptr %this, i64 10
  %frombool13 = zext i1 %call.i10 to i8
  store i8 %frombool13, ptr %m_local_ctx, align 2
  %5 = load ptr, ptr %p, align 8
  %call.i12 = invoke noundef i32 @_ZNK10params_ref8get_uintEPKcRKS_j(ptr noundef nonnull align 8 dereferenceable(8) %5, ptr noundef nonnull @.str.11, ptr noundef nonnull align 8 dereferenceable(8) %g.i, i32 noundef -1)
          to label %invoke.cont14 unwind label %lpad

invoke.cont14:                                    ; preds = %invoke.cont11
  %m_local_ctx_limit = getelementptr inbounds i8, ptr %this, i64 24
  store i32 %call.i12, ptr %m_local_ctx_limit, align 8
  %6 = load ptr, ptr %p, align 8
  %call.i14 = invoke noundef zeroext i1 @_ZNK10params_ref8get_boolEPKcRKS_b(ptr noundef nonnull align 8 dereferenceable(8) %6, ptr noundef nonnull @.str.12, ptr noundef nonnull align 8 dereferenceable(8) %g.i, i1 noundef zeroext false)
          to label %invoke.cont16 unwind label %lpad

invoke.cont16:                                    ; preds = %invoke.cont14
  %m_blast_distinct = getelementptr inbounds i8, ptr %this, i64 12
  %frombool18 = zext i1 %call.i14 to i8
  store i8 %frombool18, ptr %m_blast_distinct, align 4
  %7 = load ptr, ptr %p, align 8
  %call.i16 = invoke noundef i32 @_ZNK10params_ref8get_uintEPKcRKS_j(ptr noundef nonnull align 8 dereferenceable(8) %7, ptr noundef nonnull @.str.13, ptr noundef nonnull align 8 dereferenceable(8) %g.i, i32 noundef -1)
          to label %invoke.cont19 unwind label %lpad

invoke.cont19:                                    ; preds = %invoke.cont16
  %m_blast_distinct_threshold = getelementptr inbounds i8, ptr %this, i64 16
  store i32 %call.i16, ptr %m_blast_distinct_threshold, align 8
  %8 = load ptr, ptr %p, align 8
  %call.i18 = invoke noundef zeroext i1 @_ZNK10params_ref8get_boolEPKcRKS_b(ptr noundef nonnull align 8 dereferenceable(8) %8, ptr noundef nonnull @.str.14, ptr noundef nonnull align 8 dereferenceable(8) %g.i, i1 noundef zeroext true)
          to label %invoke.cont21 unwind label %lpad

invoke.cont21:                                    ; preds = %invoke.cont19
  %m_ite_extra_rules = getelementptr inbounds i8, ptr %this, i64 20
  %frombool23 = zext i1 %call.i18 to i8
  store i8 %frombool23, ptr %m_ite_extra_rules, align 4
  call void @_ZN10params_refD1Ev(ptr noundef nonnull align 8 dereferenceable(8) %g.i) #16
  ret void

lpad:                                             ; preds = %invoke.cont19, %invoke.cont16, %invoke.cont14, %invoke.cont11, %invoke.cont8, %invoke.cont5, %invoke.cont2, %invoke.cont, %entry
  %9 = landingpad { ptr, i32 }
          cleanup
  call void @_ZN10params_refD1Ev(ptr noundef nonnull align 8 dereferenceable(8) %g.i) #16
  resume { ptr, i32 } %9
}